(dp0
S'OriginalConfig'
p1
ccopy_reg
_reconstructor
p2
(cWMCore.Configuration
Configuration
p3
c__builtin__
object
p4
Ntp5
Rp6
(dp7
S'Site'
p8
g2
(cWMCore.Configuration
ConfigSection
p9
g4
Ntp10
Rp11
(dp12
S'_internal_skipChecks'
p13
I00
sS'_internal_documentation'
p14
S''
p15
sS'_internal_settings'
p16
c__builtin__
set
p17
((lp18
S'storageSite'
p19
atp20
Rp21
sS'_internal_name'
p22
g8
sS'_internal_docstrings'
p23
(dp24
sS'_internal_children'
p25
g17
((lp26
tp27
Rp28
sg19
S'T3_CH_CERNBOX'
p29
sS'_internal_parent_ref'
p30
NsbsS'Data'
p31
g2
(g9
g4
Ntp32
Rp33
(dp34
S'inputDataset'
p35
S'/Monopole_SpinHalf_DrellYan_M-2500_TuneCP5_13TeV_madgraph-pythia8/RunIISummer20UL18RECO-106X_upgrade2018_realistic_v11_L1v1-v2/GEN-SIM-RECO'
p36
sS'allowNonValidInputDataset'
p37
I01
sg13
I00
sS'splitting'
p38
S'FileBased'
p39
sS'unitsPerJob'
p40
I1
sg14
g15
sg16
g17
((lp41
g35
ag37
aS'publication'
p42
ag40
aS'inputDBS'
p43
ag38
aS'outputDatasetTag'
p44
aS'outLFNDirBase'
p45
atp46
Rp47
sg22
g31
sg43
S'global'
p48
sg23
(dp49
sg44
S'MC_2018'
p50
sg25
g17
((lp51
tp52
Rp53
sg45
S'/store/user/tmenezes/MagneticMonopole_MC_2018/Monopole_SpinHalf_DrellYan_M-2500_TuneCP5_13TeV_madgraph-pythia8/'
p54
sg30
Nsg42
I01
sbsS'_internal_sections'
p55
(lp56
S'General'
p57
aS'JobType'
p58
ag31
ag8
asg58
g2
(g9
g4
Ntp59
Rp60
(dp61
S'outputFiles'
p62
(lp63
S'output.root'
p64
asg13
I00
sg14
g15
sg16
g17
((lp65
S'psetName'
p66
aS'pluginName'
p67
ag62
aS'allowUndistributedCMSSW'
p68
atp69
Rp70
sg22
g58
sg23
(dp71
sg67
S'Analysis'
p72
sg25
g17
((lp73
tp74
Rp75
sg68
I01
sg66
S'ntuple_mc_2018_cfg_METFilter.py'
p76
sg30
Nsbsg57
g2
(g9
g4
Ntp77
Rp78
(dp79
S'transferLogs'
p80
I01
sg13
I00
sg14
g15
sg16
g17
((lp81
g80
aS'transferOutputs'
p82
aS'workArea'
p83
aS'requestName'
p84
atp85
Rp86
sg22
g57
sg23
(dp87
sg82
I01
sg25
g17
((lp88
tp89
Rp90
sg84
S'MC_2018_Monopole_SpinHalf_DrellYan_M-2500_TuneCP5_13TeV_madgraph-pythia8'
p91
sg30
Nsg83
S'10Dec_crab_EXOMONOPOLE_MC_2018/Monopole_SpinHalf_DrellYan_M-2500_TuneCP5_13TeV_madgraph-pythia8'
p92
sbsbsS'voGroup'
p93
g15
sS'Server'
p94
S'cmsweb.cern.ch'
p95
sS'instance'
p96
S'prod'
p97
sS'RequestName'
p98
V241210_165441:tmenezes_crab_MC_2018_Monopole_SpinHalf_DrellYan_M-2500_TuneCP5_13TeV_madgraph-pythia8
p99
sS'voRole'
p100
S'NULL'
p101
sS'Port'
p102
g15
s.